(dp0
Vhallway
p1
I12
sVbathroom
p2
I9
sVgarden
p3
I11
sVjourneyed
p4
I14
sVoffice
p5
I17
sVis
p6
I13
sVbedroom
p7
I10
sVmoved
p8
I16
sVback
p9
I8
sVwent
p10
I21
sV.
p11
I1
sVto
p12
I19
sVtravelled
p13
I20
sVDaniel
p14
I3
sVSandra
p15
I6
sVthe
p16
I18
sVJohn
p17
I4
sVWhere
p18
I7
sVMary
p19
I5
sV?
p20
I2
sVkitchen
p21
I15
s.